; Function Attrs: nounwind uwtable
define range(i32 -1, 1) i32 @H5_timer_get_times(ptr noundef readonly byval(%struct.H5_timer_t) align 8 captures(none) %0, ptr noundef writeonly captures(none) %1) local_unnamed_addr #5 {
  %3 = alloca %struct.timespec, align 8
  %4 = alloca %struct.rusage, align 8
  %5 = getelementptr inbounds nuw i8, ptr %0, i64 72
  %6 = load i8, ptr %5, align 8, !tbaa !26, !range !13, !noundef !14
  %7 = trunc nuw i8 %6 to i1
  br i1 %7, label %8, label %53

8:                                                ; preds = %2
  call void @llvm.lifetime.start.p0(i64 144, ptr nonnull %4) #11
  %9 = call i32 @getrusage(i32 noundef 0, ptr noundef nonnull %4) #11
  %10 = icmp slt i32 %9, 0
  br i1 %10, label %52, label %11

11:                                               ; preds = %8
  %12 = getelementptr inbounds nuw i8, ptr %4, i64 16
  %13 = load i64, ptr %12, align 8, !tbaa !16
  %14 = sitofp i64 %13 to double
  %15 = getelementptr inbounds nuw i8, ptr %4, i64 24
  %16 = load i64, ptr %15, align 8, !tbaa !18
  %17 = sitofp i64 %16 to double
  %18 = fdiv double %17, 1.000000e+06
  %19 = fadd double %18, %14
  %20 = load i64, ptr %4, align 8, !tbaa !22
  %21 = sitofp i64 %20 to double
  %22 = getelementptr inbounds nuw i8, ptr %4, i64 8
  %23 = load i64, ptr %22, align 8, !tbaa !23
  %24 = sitofp i64 %23 to double
  %25 = fdiv double %24, 1.000000e+06
  %26 = fadd double %25, %21
  call void @llvm.lifetime.end.p0(i64 144, ptr nonnull %4) #11
  %27 = load i8, ptr @H5_init_g, align 1, !tbaa !11, !range !13, !noundef !14
  %28 = trunc nuw i8 %27 to i1
  %29 = load i8, ptr @H5_libterm_g, align 1, !range !13
  %30 = trunc nuw i8 %29 to i1
  %31 = xor i1 %30, true
  %32 = select i1 %28, i1 true, i1 %31
  br i1 %32, label %33, label %.thread, !prof !15

33:                                               ; preds = %11
  call void @llvm.lifetime.start.p0(i64 16, ptr nonnull %3) #11
  %34 = call i32 @clock_gettime(i32 noundef 1, ptr noundef nonnull %3) #11
  %35 = load i64, ptr %3, align 8, !tbaa !8
  %36 = sitofp i64 %35 to double
  %37 = getelementptr inbounds nuw i8, ptr %3, i64 8
  %38 = load i64, ptr %37, align 8, !tbaa !10
  %39 = sitofp i64 %38 to double
  %40 = fdiv double %39, 1.000000e+09
  %41 = fadd double %40, %36
  call void @llvm.lifetime.end.p0(i64 16, ptr nonnull %3) #11
  br label %.thread

.thread:                                          ; preds = %11, %33
  %.sroa.6.0.ph = phi double [ 0.000000e+00, %11 ], [ %41, %33 ]
  %42 = getelementptr inbounds nuw i8, ptr %0, i64 16
  %43 = load double, ptr %42, align 8, !tbaa !30
  %44 = fsub double %.sroa.6.0.ph, %43
  %45 = getelementptr inbounds nuw i8, ptr %1, i64 16
  store double %44, ptr %45, align 8, !tbaa !25
  %46 = getelementptr inbounds nuw i8, ptr %0, i64 8
  %47 = load double, ptr %46, align 8, !tbaa !32
  %48 = fsub double %19, %47
  %49 = getelementptr inbounds nuw i8, ptr %1, i64 8
  store double %48, ptr %49, align 8, !tbaa !19
  %50 = load double, ptr %0, align 8, !tbaa !33
  %51 = fsub double %26, %50
  store double %51, ptr %1, align 8, !tbaa !24
  br label %62

52:                                               ; preds = %8
  call void @llvm.lifetime.end.p0(i64 144, ptr nonnull %4) #11
  br label %62

53:                                               ; preds = %2
  %54 = getelementptr inbounds nuw i8, ptr %0, i64 24
  %55 = getelementptr inbounds nuw i8, ptr %0, i64 40
  %56 = load double, ptr %55, align 8, !tbaa !31
  %57 = getelementptr inbounds nuw i8, ptr %1, i64 16
  store double %56, ptr %57, align 8, !tbaa !25
  %58 = getelementptr inbounds nuw i8, ptr %0, i64 32
  %59 = load double, ptr %58, align 8, !tbaa !28
  %60 = getelementptr inbounds nuw i8, ptr %1, i64 8
  store double %59, ptr %60, align 8, !tbaa !19
  %61 = load double, ptr %54, align 8, !tbaa !29
  store double %61, ptr %1, align 8, !tbaa !24
  br label %62

62:                                               ; preds = %53, %.thread, %52
  %.1 = phi i32 [ -1, %52 ], [ 0, %.thread ], [ 0, %53 ]
  ret i32 %.1
}